target datalayout = "e-m:e-p270:32:32-p271:32:32-p272:64:64-i64:64-i128:128-f80:128-n8:16:32:64-S128"
target triple = "x86_64-pc-linux-gnu"

%struct.part_record = type { i32, ptr, ptr, ptr, ptr, ptr, ptr, i32, ptr, ptr, ptr, ptr, ptr, i32, i64, i32, ptr, ptr, ptr, ptr, ptr, i32, i32, ptr, i32, i32, i64, i32, i32, i16, i32, i32, i32, i32, ptr, ptr, ptr, ptr, ptr, double, i16, i16, i16, i16, ptr, ptr, i16, i16, i32, i16, i32, i32, i32, i32, i16, ptr, ptr, ptr }
%struct.job_record = type { i32, ptr, ptr, ptr, ptr, i16, i32, i32, i32, ptr, i32, ptr, ptr, i16, ptr, double, i64, ptr, ptr, ptr, ptr, ptr, ptr, i32, ptr, i32, i64, i64, i32, i32, ptr, i16, i64, i64, i8, i32, ptr, ptr, ptr, ptr, ptr, ptr, ptr, ptr, i32, ptr, ptr, i32, ptr, i32, ptr, i32, ptr, i32, ptr, ptr, ptr, ptr, ptr, ptr, i32, i16, i64, ptr, ptr, ptr, ptr, %struct.acct_policy_limit_set_t, i16, ptr, ptr, ptr, ptr, ptr, i32, ptr, ptr, ptr, ptr, ptr, i32, i32, ptr, ptr, ptr, i16, ptr, ptr, i8, ptr, ptr, i64, i64, i8, i32, i32, i8, i32, ptr, i32, i64, i32, ptr, ptr, ptr, i8, i16, i64, i32, ptr, ptr, ptr, ptr, ptr, i16, i32, ptr, ptr, ptr, ptr, i32, ptr, i32, i16, i64, ptr, i32, i32, ptr, i64, ptr, ptr, i64, i32, i32, i64, i32, i32, ptr, ptr, ptr, ptr, ptr, ptr, ptr, ptr, ptr, ptr, ptr, ptr, i32, ptr, i16, i16, i16, i16, ptr, i32, i32, i8, i64 }
%struct.acct_policy_limit_set_t = type { i16, i16, ptr }

; Function Attrs: nounwind uwtable
define dso_local zeroext i1 @preempt_p_preemptable(ptr noundef %0, ptr noundef %1) #0 {
  %3 = alloca i1, align 1
  %4 = alloca ptr, align 8
  %5 = alloca ptr, align 8
  store ptr %0, ptr %4, align 8
  store ptr %1, ptr %5, align 8
  %6 = load ptr, ptr %4, align 8
  %7 = getelementptr inbounds nuw %struct.job_record, ptr %6, i32 0, i32 89
  %8 = load ptr, ptr %7, align 8
  %9 = icmp eq ptr %8, null
  br i1 %9, label %32, label %10

10:                                               ; preds = %2
  %11 = load ptr, ptr %4, align 8
  %12 = getelementptr inbounds nuw %struct.job_record, ptr %11, i32 0, i32 89
  %13 = load ptr, ptr %12, align 8
  %14 = getelementptr inbounds nuw %struct.part_record, ptr %13, i32 0, i32 43
  %15 = load i16, ptr %14, align 2
  %16 = zext i16 %15 to i32
  %17 = load ptr, ptr %5, align 8
  %18 = getelementptr inbounds nuw %struct.job_record, ptr %17, i32 0, i32 89
  %19 = load ptr, ptr %18, align 8
  %20 = getelementptr inbounds nuw %struct.part_record, ptr %19, i32 0, i32 43
  %21 = load i16, ptr %20, align 2
  %22 = zext i16 %21 to i32
  %23 = icmp sge i32 %16, %22
  br i1 %23, label %32, label %24

24:                                               ; preds = %10
  %25 = load ptr, ptr %4, align 8
  %26 = getelementptr inbounds nuw %struct.job_record, ptr %25, i32 0, i32 89
  %27 = load ptr, ptr %26, align 8
  %28 = getelementptr inbounds nuw %struct.part_record, ptr %27, i32 0, i32 41
  %29 = load i16, ptr %28, align 2
  %30 = zext i16 %29 to i32
  %31 = icmp eq i32 %30, 0
  br i1 %31, label %32, label %33

32:                                               ; preds = %24, %10, %2
  store i1 false, ptr %3, align 1
  br label %34

33:                                               ; preds = %24
  store i1 true, ptr %3, align 1
  br label %34

34:                                               ; preds = %33, %32
  %35 = load i1, ptr %3, align 1
  ret i1 %35
}