; Function Attrs: mustprogress nofree norecurse nosync nounwind willreturn memory(read, inaccessiblemem: none) uwtable
define dso_local zeroext i1 @preempt_p_preemptable(ptr noundef readonly captures(none) %0, ptr noundef readonly captures(none) %1) local_unnamed_addr #3 {
  %3 = getelementptr inbounds nuw i8, ptr %0, i64 672
  %4 = load ptr, ptr %3, align 8
  %5 = icmp eq ptr %4, null
  br i1 %5, label %17, label %6

6:                                                ; preds = %2
  %7 = getelementptr inbounds nuw i8, ptr %4, i64 286
  %8 = load i16, ptr %7, align 2
  %9 = getelementptr inbounds nuw i8, ptr %1, i64 672
  %10 = load ptr, ptr %9, align 8
  %11 = getelementptr inbounds nuw i8, ptr %10, i64 286
  %12 = load i16, ptr %11, align 2
  %.not = icmp ult i16 %8, %12
  br i1 %.not, label %13, label %17

13:                                               ; preds = %6
  %14 = getelementptr inbounds nuw i8, ptr %4, i64 282
  %15 = load i16, ptr %14, align 2
  %16 = icmp ne i16 %15, 0
  br label %17

17:                                               ; preds = %13, %2, %6
  %.0 = phi i1 [ false, %6 ], [ false, %2 ], [ %16, %13 ]
  ret i1 %.0
}